EXPORTS
	_ZN15CWsfAppLauncher4NewLEv @ 1 NONAME
	_ZN15CWsfAppLauncher5NewLCEv @ 2 NONAME
	_ZN18CWsfActiveWrappers10DisconnectEv @ 3 NONAME
	_ZN18CWsfActiveWrappers11GetWLANListEv @ 4 NONAME
	_ZN18CWsfActiveWrappers11RefreshScanEv @ 5 NONAME
	_ZN18CWsfActiveWrappers15RefreshWLANListEi @ 6 NONAME
	_ZN18CWsfActiveWrappers23GetConnectedWLANNetworkEv @ 7 NONAME
	_ZN18CWsfActiveWrappers24LaunchHelperApplicationLER12TWsfWlanInfoii @ 8 NONAME
	_ZN18CWsfActiveWrappers25CheckIsWlanUsedByBrowserLEv @ 9 NONAME
	_ZN18CWsfActiveWrappers4NewLEP9CWsfModelR17MWsfModelObserver @ 10 NONAME
	_ZN18CWsfActiveWrappers5NewLCEP9CWsfModelR17MWsfModelObserver @ 11 NONAME
	_ZN18CWsfActiveWrappers7ConnectEji18TWsfIapPersistence @ 12 NONAME
	_ZN18CWsfActiveWrappersD0Ev @ 13 NONAME
	_ZN18CWsfActiveWrappersD1Ev @ 14 NONAME
	_ZN18CWsfActiveWrappersD2Ev @ 15 NONAME
	_ZN9CWsfModel10DisconnectER8TPckgBufIiER14TRequestStatus @ 16 NONAME
	_ZN9CWsfModel10RefreshingEv @ 17 NONAME
	_ZN9CWsfModel11ActiveViewLEv @ 18 NONAME
	_ZN9CWsfModel11EnableScanLEv @ 19 NONAME
	_ZN9CWsfModel11GetWlanListER8TPckgBufIjER5TPtr8R14TRequestStatus @ 20 NONAME
	_ZN9CWsfModel11RefreshScanER8TPckgBufIiER14TRequestStatus @ 21 NONAME
	_ZN9CWsfModel12DisableScanLEv @ 22 NONAME
	_ZN9CWsfModel12GetWlanListLEv @ 23 NONAME
	_ZN9CWsfModel12IsConnectedLEv @ 24 NONAME
	_ZN9CWsfModel12ObservedWlanEv @ 25 NONAME
	_ZN9CWsfModel12RefreshScanLEv @ 26 NONAME
	_ZN9CWsfModel14AbortScanningLEv @ 27 NONAME
	_ZN9CWsfModel14IsScanEnabledLEv @ 28 NONAME
	_ZN9CWsfModel14LaunchBrowserLEm @ 29 NONAME
	_ZN9CWsfModel14SetActiveViewLEi @ 30 NONAME
	_ZN9CWsfModel15GetWlanListSizeER8TPckgBufIjER14TRequestStatus @ 31 NONAME
	_ZN9CWsfModel15SetRefreshStateEi @ 32 NONAME
	_ZN9CWsfModel16AbortConnectingLEv @ 33 NONAME
	_ZN9CWsfModel16SetObservedWlanLERK6TDesC8 @ 34 NONAME
	_ZN9CWsfModel17ContinueBrowsingLEm @ 35 NONAME
	_ZN9CWsfModel17ContinueBrowsingLEv @ 36 NONAME
	_ZN9CWsfModel17SetConnectResultLEij @ 37 NONAME
	_ZN9CWsfModel17SetEngineObserverEP17MWsfModelObserver @ 38 NONAME
	_ZN9CWsfModel18CancelNotifyEventsEv @ 39 NONAME
	_ZN9CWsfModel18CreateAccessPointLER12TWsfWlanInfoi @ 40 NONAME
	_ZN9CWsfModel20RequestNotifyEventsLER23MWsfStateChangeObserver @ 41 NONAME
	_ZN9CWsfModel22CloseHelperApplicationEv @ 42 NONAME
	_ZN9CWsfModel23GetConnectedWlanDetailsER8TPckgBufIiER12TWsfWlanInfoR14TRequestStatus @ 43 NONAME
	_ZN9CWsfModel24GetConnectedWlanDetailsLER12TWsfWlanInfo @ 44 NONAME
	_ZN9CWsfModel24LaunchHelperApplicationLER12TWsfWlanInfo @ 45 NONAME
	_ZN9CWsfModel4NewLER23MWsfStateChangeObserveri @ 46 NONAME
	_ZN9CWsfModel5NewLCER23MWsfStateChangeObserveri @ 47 NONAME
	_ZN9CWsfModel8ConnectLER8TPckgBufIiEmi18TWsfIapPersistenceR14TRequestStatus @ 48 NONAME
	_ZN9CWsfModelD0Ev @ 49 NONAME
	_ZN9CWsfModelD1Ev @ 50 NONAME
	_ZN9CWsfModelD2Ev @ 51 NONAME
	_ZNK9CWsfModel18CheckIsIapIdValidLEj @ 52 NONAME
	_ZTI18CWsfActiveWrappers @ 53 NONAME
	_ZTI24CWsfConnMonActiveWrapper @ 54 NONAME
	_ZTI24CWsfConnectActiveWrapper @ 55 NONAME
	_ZTI25CWsfWLANListActiveWrapper @ 56 NONAME
	_ZTI27CWsfDisconnectActiveWrapper @ 57 NONAME
	_ZTI28CWsfRefreshScanActiveWrapper @ 58 NONAME
	_ZTI31CWsfLaunchAiHelperActiveWrapper @ 59 NONAME
	_ZTV18CWsfActiveWrappers @ 60 NONAME
	_ZTV24CWsfConnMonActiveWrapper @ 61 NONAME
	_ZTV24CWsfConnectActiveWrapper @ 62 NONAME
	_ZTV25CWsfWLANListActiveWrapper @ 63 NONAME
	_ZTV27CWsfDisconnectActiveWrapper @ 64 NONAME
	_ZTV28CWsfRefreshScanActiveWrapper @ 65 NONAME
	_ZTV31CWsfLaunchAiHelperActiveWrapper @ 66 NONAME
	_ZThn12_N9CWsfModel14LaunchBrowserLEm @ 67 NONAME

