EXPORTS
	?ExternalizeL@TWsfWlanInfo@@QBEXAAVRWriteStream@@@Z @ 1 NONAME ; void TWsfWlanInfo::ExternalizeL(class RWriteStream &) const
	?At@CWsfWlanInfoArray@@QBEPAVTWsfWlanInfo@@H@Z @ 2 NONAME ; class TWsfWlanInfo * CWsfWlanInfoArray::At(int) const
	?GetSsidAsUtf8LC@TWsfWlanInfo@@QAEPAVHBufC8@@XZ @ 3 NONAME ; class HBufC8 * TWsfWlanInfo::GetSsidAsUtf8LC(void)
	??ACWsfWlanInfoArray@@QBEPAVTWsfWlanInfo@@I@Z @ 4 NONAME ; class TWsfWlanInfo * CWsfWlanInfoArray::operator[](unsigned int) const
	?Delete@CWsfWlanInfoArray@@QAEXPAVTWsfWlanInfo@@@Z @ 5 NONAME ; void CWsfWlanInfoArray::Delete(class TWsfWlanInfo *)
	?GetSsidAsUnicodeLC@TWsfWlanInfo@@QAEPAVHBufC16@@XZ @ 6 NONAME ; class HBufC16 * TWsfWlanInfo::GetSsidAsUnicodeLC(void)
	?Reset@CWsfWlanInfoArray@@QAEXXZ @ 7 NONAME ; void CWsfWlanInfoArray::Reset(void)
	?SetUIPrioritySort@CWsfWlanInfoArray@@QAEXH@Z @ 8 NONAME ; void CWsfWlanInfoArray::SetUIPrioritySort(int)
	?NewLC@CWsfWlanInfoArray@@SAPAV1@XZ @ 9 NONAME ; class CWsfWlanInfoArray * CWsfWlanInfoArray::NewLC(void)
	?AppendFromStreamBufferL@CWsfWlanInfoArray@@QAEHABVTDesC8@@@Z @ 10 NONAME ; int CWsfWlanInfoArray::AppendFromStreamBufferL(class TDesC8 const &)
	?DeleteFromTail@CWsfWlanInfoArray@@QAEHH@Z @ 11 NONAME ; int CWsfWlanInfoArray::DeleteFromTail(int)
	?Count@CWsfWlanInfoArray@@QAEIXZ @ 12 NONAME ; unsigned int CWsfWlanInfoArray::Count(void)
	?GetSsidAsUnicodeLC@TWsfWlanInfo@@SAPAVHBufC16@@ABV?$TBuf8@$0CA@@@@Z @ 13 NONAME ; class HBufC16 * TWsfWlanInfo::GetSsidAsUnicodeLC(class TBuf8<32> const &)
	?AppendL@CWsfWlanInfoArray@@QAEXPAVTWsfWlanInfo@@@Z @ 14 NONAME ; void CWsfWlanInfoArray::AppendL(class TWsfWlanInfo *)
	??0TWsfWlanInfo@@QAE@AAVTDesC8@@GW4TWlanSecMode@CMManager@@HW4TWlanNetMode@3@KEK@Z @ 15 NONAME ; TWsfWlanInfo::TWsfWlanInfo(class TDesC8 &, unsigned short, enum CMManager::TWlanSecMode, int, enum CMManager::TWlanNetMode, unsigned long, unsigned char, unsigned long)
	?SignalStrength@TWsfWlanInfo@@QAE?AW4TWsfWlanSignalStrengthLevel@@XZ @ 16 NONAME ; enum TWsfWlanSignalStrengthLevel TWsfWlanInfo::SignalStrength(void)
	?MatchWithIapIDL@CWsfWlanInfoArray@@QAEXIHAAV?$RPointerArray@VTWsfWlanInfo@@@@@Z @ 17 NONAME ; void CWsfWlanInfoArray::MatchWithIapIDL(unsigned int, int, class RPointerArray<class TWsfWlanInfo> &)
	?FindHiddenEntry@CWsfWlanInfoArray@@QAEPAVTWsfWlanInfo@@H@Z @ 18 NONAME ; class TWsfWlanInfo * CWsfWlanInfoArray::FindHiddenEntry(int)
	?GetIapNameAsUtf8LC@TWsfWlanInfo@@QAEPAVHBufC8@@XZ @ 19 NONAME ; class HBufC8 * TWsfWlanInfo::GetIapNameAsUtf8LC(void)
	?MatchL@CWsfWlanInfoArray@@QAEXABVTDesC8@@W4TWlanSecMode@CMManager@@W4TWlanNetMode@4@HAAV?$RPointerArray@VTWsfWlanInfo@@@@@Z @ 20 NONAME ; void CWsfWlanInfoArray::MatchL(class TDesC8 const &, enum CMManager::TWlanSecMode, enum CMManager::TWlanNetMode, int, class RPointerArray<class TWsfWlanInfo> &)
	?SortArrayL@CWsfWlanInfoArray@@QAEXAAVMWsfWlanInfoArrayFilterVisitor@@@Z @ 21 NONAME ; void CWsfWlanInfoArray::SortArrayL(class MWsfWlanInfoArrayFilterVisitor &)
	?GetArrayIndex@CWsfWlanInfoArray@@QBEHPAVTWsfWlanInfo@@@Z @ 22 NONAME ; int CWsfWlanInfoArray::GetArrayIndex(class TWsfWlanInfo *) const
	?SortArrayL@CWsfWlanInfoArray@@QAEXXZ @ 23 NONAME ; void CWsfWlanInfoArray::SortArrayL(void)
	?NewL@CWsfWlanInfoArray@@SAPAV1@XZ @ 24 NONAME ; class CWsfWlanInfoArray * CWsfWlanInfoArray::NewL(void)
	?GetUIPrioritySort@CWsfWlanInfoArray@@QAEHXZ @ 25 NONAME ; int CWsfWlanInfoArray::GetUIPrioritySort(void)
	?GetIapNameAsUnicodeLC@TWsfWlanInfo@@QAEPAVHBufC16@@XZ @ 26 NONAME ; class HBufC16 * TWsfWlanInfo::GetIapNameAsUnicodeLC(void)
	??0TWsfWlanInfo@@QAE@XZ @ 27 NONAME ; TWsfWlanInfo::TWsfWlanInfo(void)
	?SignalStrengthPercentage@TWsfWlanInfo@@QAEHXZ @ 28 NONAME ; int TWsfWlanInfo::SignalStrengthPercentage(void)
	?InternalizeL@TWsfWlanInfo@@QAEXAAVRReadStream@@@Z @ 29 NONAME ; void TWsfWlanInfo::InternalizeL(class RReadStream &)
	?SerializeContentLC@CWsfWlanInfoArray@@QAEPAVHBufC8@@XZ @ 30 NONAME ; class HBufC8 * CWsfWlanInfoArray::SerializeContentLC(void)
	?Match@CWsfWlanInfoArray@@QAEPAVTWsfWlanInfo@@ABVTDesC8@@H@Z @ 31 NONAME ; class TWsfWlanInfo * CWsfWlanInfoArray::Match(class TDesC8 const &, int)
	?Match@CWsfWlanInfoArray@@QAEPAVTWsfWlanInfo@@KH@Z @ 32 NONAME ; class TWsfWlanInfo * CWsfWlanInfoArray::Match(unsigned long, int)

