EXPORTS
	??0RWsfSession@@QAE@XZ @ 1 NONAME ; RWsfSession::RWsfSession(void)
	?AbortConnectingL@RWsfSession@@QAEXXZ @ 2 NONAME ; void RWsfSession::AbortConnectingL(void)
	?AbortScanningL@RWsfSession@@QAEXXZ @ 3 NONAME ; void RWsfSession::AbortScanningL(void)
	?CancelAll@RWsfSession@@QAEXXZ @ 4 NONAME ; void RWsfSession::CancelAll(void)
	?CancelNotifyEvent@RWsfSession@@QAEXXZ @ 5 NONAME ; void RWsfSession::CancelNotifyEvent(void)
	?Close@RWsfSession@@QAEXXZ @ 6 NONAME ; void RWsfSession::Close(void)
	?Connect@RWsfSession@@QAEHXZ @ 7 NONAME ; int RWsfSession::Connect(void)
	?ConnectWlanBearerL@RWsfSession@@QAEHKW4TWsfIapPersistence@@@Z @ 8 NONAME ; int RWsfSession::ConnectWlanBearerL(unsigned long, enum TWsfIapPersistence)
	?ConnectedAccountNameL@RWsfSession@@QAEPAVHBufC16@@XZ @ 9 NONAME ; class HBufC16 * RWsfSession::ConnectedAccountNameL(void)
	?ControlDisconnectTimerL@RWsfSession@@QAEHI@Z @ 10 NONAME ; int RWsfSession::ControlDisconnectTimerL(unsigned int)
	?DisableScanL@RWsfSession@@QAEHXZ @ 11 NONAME ; int RWsfSession::DisableScanL(void)
	?DisconnectWlanBearerL@RWsfSession@@QAEHXZ @ 12 NONAME ; int RWsfSession::DisconnectWlanBearerL(void)
	?EnableScanL@RWsfSession@@QAEHXZ @ 13 NONAME ; int RWsfSession::EnableScanL(void)
	?GetConnectedWlanDetailsL@RWsfSession@@QAEHAAVTWsfWlanInfo@@@Z @ 14 NONAME ; int RWsfSession::GetConnectedWlanDetailsL(class TWsfWlanInfo &)
	?IsConnectedL@RWsfSession@@QAEHXZ @ 15 NONAME ; int RWsfSession::IsConnectedL(void)
	?IsScanEnabledL@RWsfSession@@QAEHXZ @ 16 NONAME ; int RWsfSession::IsScanEnabledL(void)
	?MonitorAccessPointL@RWsfSession@@QAEXK@Z @ 17 NONAME ; void RWsfSession::MonitorAccessPointL(unsigned long)
	?NotifyEventL@RWsfSession@@QAEXAAVMWsfStateChangeObserver@@@Z @ 18 NONAME ; void RWsfSession::NotifyEventL(class MWsfStateChangeObserver &)
	?RequestScanL@RWsfSession@@QAEHXZ @ 19 NONAME ; int RWsfSession::RequestScanL(void)
	?SetIapPersistenceL@RWsfSession@@QAEHW4TWsfIapPersistence@@@Z @ 20 NONAME ; int RWsfSession::SetIapPersistenceL(enum TWsfIapPersistence)
	?UpdateWlanListL@RWsfSession@@QAEXPAVCWsfWlanInfoArray@@@Z @ 21 NONAME ; void RWsfSession::UpdateWlanListL(class CWsfWlanInfoArray *)
	?ConnectWlanBearerWithoutConnWaiterL@RWsfSession@@QAEHKW4TWsfIapPersistence@@@Z @ 22 NONAME ; int RWsfSession::ConnectWlanBearerWithoutConnWaiterL(unsigned long, enum TWsfIapPersistence)

