EXPORTS
	?wlanScanDirectReady@WlanQtUtils@@IAEXXZ @ 1 NONAME ; void WlanQtUtils::wlanScanDirectReady(void)
	?iapName@WlanQtUtils@@QBE?AVQString@@H@Z @ 2 NONAME ; class QString WlanQtUtils::iapName(int) const
	??0WlanQtUtilsAp@@QAE@XZ @ 3 NONAME ; WlanQtUtilsAp::WlanQtUtilsAp(void)
	?updateIap@WlanQtUtils@@QAE_NHPBVWlanQtUtilsAp@@@Z @ 4 NONAME ; bool WlanQtUtils::updateIap(int, class WlanQtUtilsAp const *)
	?createIap@WlanQtUtils@@QAEHPBVWlanQtUtilsAp@@@Z @ 5 NONAME ; int WlanQtUtils::createIap(class WlanQtUtilsAp const *)
	?Start@RConnection@@QAEXAAVTConnPref@@AAVTRequestStatus@@@Z @ 6 NONAME ; void RConnection::Start(class TConnPref &, class TRequestStatus &)
	?value@WlanQtUtilsAp@@QBE?AVQVariant@@H@Z @ 7 NONAME ; class QVariant WlanQtUtilsAp::value(int) const
	??1WlanQtUtilsIap@@UAE@XZ @ 8 NONAME ; WlanQtUtilsIap::~WlanQtUtilsIap(void)
	?qt_metacast@WlanQtUtils@@UAEPAXPBD@Z @ 9 NONAME ; void * WlanQtUtils::qt_metacast(char const *)
	?qt_metacall@WlanQtUtils@@UAEHW4Call@QMetaObject@@HPAPAX@Z @ 10 NONAME ; int WlanQtUtils::qt_metacall(enum QMetaObject::Call, int, void * *)
	?availableWlanAps@WlanQtUtils@@QBEXAAV?$QList@V?$QSharedPointer@VWlanQtUtilsAp@@@@@@@Z @ 11 NONAME ; void WlanQtUtils::availableWlanAps(class QList<class QSharedPointer<class WlanQtUtilsAp> > &) const
	??1WlanQtUtilsAp@@UAE@XZ @ 12 NONAME ; WlanQtUtilsAp::~WlanQtUtilsAp(void)
	?compare@WlanQtUtilsAp@@SA_NPBV1@0@Z @ 13 NONAME ; bool WlanQtUtilsAp::compare(class WlanQtUtilsAp const *, class WlanQtUtilsAp const *)
	?staticMetaObject@WlanQtUtils@@2UQMetaObject@@B @ 14 NONAME ; struct QMetaObject const WlanQtUtils::staticMetaObject
	??0WlanQtUtilsAp@@QAE@ABV0@@Z @ 15 NONAME ; WlanQtUtilsAp::WlanQtUtilsAp(class WlanQtUtilsAp const &)
	??_EWlanQtUtilsAp@@UAE@I@Z @ 16 NONAME ; WlanQtUtilsAp::~WlanQtUtilsAp(unsigned int)
	?disconnectIap@WlanQtUtils@@QAEXH@Z @ 17 NONAME ; void WlanQtUtils::disconnectIap(int)
	?scanWlanDirect@WlanQtUtils@@QAEXABVQString@@@Z @ 18 NONAME ; void WlanQtUtils::scanWlanDirect(class QString const &)
	?tr@WlanQtUtils@@SA?AVQString@@PBD0@Z @ 19 NONAME ; class QString WlanQtUtils::tr(char const *, char const *)
	?wlanNetworkClosed@WlanQtUtils@@IAEXHH@Z @ 20 NONAME ; void WlanQtUtils::wlanNetworkClosed(int, int)
	?connectionStatus@WlanQtUtils@@QBE?AW4ConnStatus@1@XZ @ 21 NONAME ; enum WlanQtUtils::ConnStatus WlanQtUtils::connectionStatus(void) const
	?setValue@WlanQtUtilsAp@@QAEXHVQVariant@@@Z @ 22 NONAME ; void WlanQtUtilsAp::setValue(int, class QVariant)
	??1WlanQtUtils@@UAE@XZ @ 23 NONAME ; WlanQtUtils::~WlanQtUtils(void)
	?scanWlans@WlanQtUtils@@QAEXXZ @ 24 NONAME ; void WlanQtUtils::scanWlans(void)
	?EventType@CConnMonEventBase@@QBEHXZ @ 25 NONAME ; int CConnMonEventBase::EventType(void) const
	?activeIap@WlanQtUtils@@QBEHXZ @ 26 NONAME ; int WlanQtUtils::activeIap(void) const
	?GetPckgAttribute@RConnectionMonitor@@QBEXIIIAAVTDes16@@AAVTRequestStatus@@@Z @ 27 NONAME ; void RConnectionMonitor::GetPckgAttribute(unsigned int, unsigned int, unsigned int, class TDes16 &, class TRequestStatus &) const
	?scanWlanAps@WlanQtUtils@@QAEXXZ @ 28 NONAME ; void WlanQtUtils::scanWlanAps(void)
	?wlanNetworkOpened@WlanQtUtils@@IAEXH@Z @ 29 NONAME ; void WlanQtUtils::wlanNetworkOpened(int)
	?connectIap@WlanQtUtils@@QAEXH_N@Z @ 30 NONAME ; void WlanQtUtils::connectIap(int, bool)
	??_EWlanQtUtilsIap@@UAE@I@Z @ 31 NONAME ; WlanQtUtilsIap::~WlanQtUtilsIap(unsigned int)
	?metaObject@WlanQtUtils@@UBEPBUQMetaObject@@XZ @ 32 NONAME ; struct QMetaObject const * WlanQtUtils::metaObject(void) const
	??_EWlanQtUtils@@UAE@I@Z @ 33 NONAME ; WlanQtUtils::~WlanQtUtils(unsigned int)
	?wlanScanReady@WlanQtUtils@@IAEXXZ @ 34 NONAME ; void WlanQtUtils::wlanScanReady(void)
	??0WlanQtUtils@@QAE@XZ @ 35 NONAME ; WlanQtUtils::WlanQtUtils(void)
	?stopWlanScan@WlanQtUtils@@QAEXXZ @ 36 NONAME ; void WlanQtUtils::stopWlanScan(void)
	?availableWlans@WlanQtUtils@@QBEXAAV?$QList@V?$QSharedPointer@VWlanQtUtilsIap@@@@@@AAV?$QList@V?$QSharedPointer@VWlanQtUtilsAp@@@@@@@Z @ 37 NONAME ; void WlanQtUtils::availableWlans(class QList<class QSharedPointer<class WlanQtUtilsIap> > &, class QList<class QSharedPointer<class WlanQtUtilsAp> > &) const
	?tr@WlanQtUtils@@SA?AVQString@@PBD0H@Z @ 38 NONAME ; class QString WlanQtUtils::tr(char const *, char const *, int)
	?getStaticMetaObject@WlanQtUtils@@SAABUQMetaObject@@XZ @ 39 NONAME ; struct QMetaObject const & WlanQtUtils::getStaticMetaObject(void)
	?trUtf8@WlanQtUtils@@SA?AVQString@@PBD0@Z @ 40 NONAME ; class QString WlanQtUtils::trUtf8(char const *, char const *)
	?deleteIap@WlanQtUtils@@QAEXH@Z @ 41 NONAME ; void WlanQtUtils::deleteIap(int)
	?wlanScanApReady@WlanQtUtils@@IAEXXZ @ 42 NONAME ; void WlanQtUtils::wlanScanApReady(void)
	??0WlanQtUtilsIap@@QAE@XZ @ 43 NONAME ; WlanQtUtilsIap::WlanQtUtilsIap(void)
	?trUtf8@WlanQtUtils@@SA?AVQString@@PBD0H@Z @ 44 NONAME ; class QString WlanQtUtils::trUtf8(char const *, char const *, int)
	?ictResult@WlanQtUtils@@IAEXH_N@Z @ 45 NONAME ; void WlanQtUtils::ictResult(int, bool)

