EXPORTS
	?ObservedWlan@CWsfModel@@QAEABVTDesC8@@XZ @ 1 NONAME ; class TDesC8 const & CWsfModel::ObservedWlan(void)
	?NewL@CWsfAppLauncher@@SAPAV1@XZ @ 2 NONAME ; class CWsfAppLauncher * CWsfAppLauncher::NewL(void)
	?EnableScanL@CWsfModel@@QAEHXZ @ 3 NONAME ; int CWsfModel::EnableScanL(void)
	?ActiveViewL@CWsfModel@@QAE?AVTUid@@XZ @ 4 NONAME ; class TUid CWsfModel::ActiveViewL(void)
	?AbortConnectingL@CWsfModel@@QAEXXZ @ 5 NONAME ; void CWsfModel::AbortConnectingL(void)
	?ContinueBrowsingL@CWsfModel@@QAEXXZ @ 6 NONAME ; void CWsfModel::ContinueBrowsingL(void)
	?SetRefreshState@CWsfModel@@QAEXH@Z @ 7 NONAME ; void CWsfModel::SetRefreshState(int)
	?RefreshScan@CWsfModel@@QAEXAAV?$TPckgBuf@H@@AAVTRequestStatus@@@Z @ 8 NONAME ; void CWsfModel::RefreshScan(class TPckgBuf<int> &, class TRequestStatus &)
	?SetEngineObserver@CWsfModel@@QAEXPAVMWsfModelObserver@@@Z @ 9 NONAME ; void CWsfModel::SetEngineObserver(class MWsfModelObserver *)
	?ConnectL@CWsfModel@@QAEHK@Z @ 10 NONAME ; int CWsfModel::ConnectL(unsigned long)
	?CheckIsIapIdValidL@CWsfModel@@QBEXI@Z @ 11 NONAME ; void CWsfModel::CheckIsIapIdValidL(unsigned int) const
	?SetActiveViewL@CWsfModel@@QAEXH@Z @ 12 NONAME ; void CWsfModel::SetActiveViewL(int)
	?NewLC@CWsfModel@@SAPAV1@AAVMWsfStateChangeObserver@@H@Z @ 13 NONAME ; class CWsfModel * CWsfModel::NewLC(class MWsfStateChangeObserver &, int)
	?IsScanEnabledL@CWsfModel@@QAEHXZ @ 14 NONAME ; int CWsfModel::IsScanEnabledL(void)
	?SetConnectResultL@CWsfModel@@QAEXHI@Z @ 15 NONAME ; void CWsfModel::SetConnectResultL(int, unsigned int)
	?AbortScanningL@CWsfModel@@QAEXXZ @ 16 NONAME ; void CWsfModel::AbortScanningL(void)
	?TestAccessPointL@CWsfModel@@QAEHAAVTWsfWlanInfo@@HH@Z @ 17 NONAME ; int CWsfModel::TestAccessPointL(class TWsfWlanInfo &, int, int)
	?CancelNotifyEvents@CWsfModel@@QAEXXZ @ 18 NONAME ; void CWsfModel::CancelNotifyEvents(void)
	??1CWsfModel@@UAE@XZ @ 19 NONAME ; CWsfModel::~CWsfModel(void)
	?LaunchHelperApplicationL@CWsfModel@@QAEXAAVTWsfWlanInfo@@HH@Z @ 20 NONAME ; void CWsfModel::LaunchHelperApplicationL(class TWsfWlanInfo &, int, int)
	?GetWlanListL@CWsfModel@@QAEPAVCWsfWlanInfoArray@@XZ @ 21 NONAME ; class CWsfWlanInfoArray * CWsfModel::GetWlanListL(void)
	?DisableScanL@CWsfModel@@QAEHXZ @ 22 NONAME ; int CWsfModel::DisableScanL(void)
	?GetConnectedWlanDetailsL@CWsfModel@@QAEHAAVTWsfWlanInfo@@@Z @ 23 NONAME ; int CWsfModel::GetConnectedWlanDetailsL(class TWsfWlanInfo &)
	?GetWlanListSize@CWsfModel@@QAEXAAV?$TPckgBuf@I@@AAVTRequestStatus@@@Z @ 24 NONAME ; void CWsfModel::GetWlanListSize(class TPckgBuf<unsigned int> &, class TRequestStatus &)
	?ConnectL@CWsfModel@@QAEXAAV?$TPckgBuf@H@@KW4TWsfIapPersistence@@AAVTRequestStatus@@@Z @ 25 NONAME ; void CWsfModel::ConnectL(class TPckgBuf<int> &, unsigned long, enum TWsfIapPersistence, class TRequestStatus &)
	?NewL@CWsfModel@@SAPAV1@AAVMWsfStateChangeObserver@@H@Z @ 26 NONAME ; class CWsfModel * CWsfModel::NewL(class MWsfStateChangeObserver &, int)
	?Refreshing@CWsfModel@@QAEHXZ @ 27 NONAME ; int CWsfModel::Refreshing(void)
	?ContinueBrowsingL@CWsfModel@@QAEXK@Z @ 28 NONAME ; void CWsfModel::ContinueBrowsingL(unsigned long)
	?IctsTestPermission@CWsfModel@@SAHXZ @ 29 NONAME ; int CWsfModel::IctsTestPermission(void)
	?DisconnectL@CWsfModel@@QAEXXZ @ 30 NONAME ; void CWsfModel::DisconnectL(void)
	?IsConnectedL@CWsfModel@@QAEHXZ @ 31 NONAME ; int CWsfModel::IsConnectedL(void)
	?CreateAccessPointL@CWsfModel@@QAEHAAVTWsfWlanInfo@@H@Z @ 32 NONAME ; int CWsfModel::CreateAccessPointL(class TWsfWlanInfo &, int)
	?TestConnectedAccessPointL@CWsfModel@@QAEHAAVTWsfWlanInfo@@H@Z @ 33 NONAME ; int CWsfModel::TestConnectedAccessPointL(class TWsfWlanInfo &, int)
	?NewLC@CWsfAppLauncher@@SAPAV1@XZ @ 34 NONAME ; class CWsfAppLauncher * CWsfAppLauncher::NewLC(void)
	?GetWlanList@CWsfModel@@QAEXAAV?$TPckgBuf@I@@AAVTPtr8@@AAVTRequestStatus@@@Z @ 35 NONAME ; void CWsfModel::GetWlanList(class TPckgBuf<unsigned int> &, class TPtr8 &, class TRequestStatus &)
	?RequestNotifyEventsL@CWsfModel@@QAEXAAVMWsfStateChangeObserver@@@Z @ 36 NONAME ; void CWsfModel::RequestNotifyEventsL(class MWsfStateChangeObserver &)
	?LaunchBrowserL@CWsfModel@@UAEXK@Z @ 37 NONAME ; void CWsfModel::LaunchBrowserL(unsigned long)
	?RefreshScanL@CWsfModel@@QAEHXZ @ 38 NONAME ; int CWsfModel::RefreshScanL(void)
	?Disconnect@CWsfModel@@QAEXAAV?$TPckgBuf@H@@AAVTRequestStatus@@@Z @ 39 NONAME ; void CWsfModel::Disconnect(class TPckgBuf<int> &, class TRequestStatus &)
	?SetObservedWlanL@CWsfModel@@QAEXABVTDesC8@@@Z @ 40 NONAME ; void CWsfModel::SetObservedWlanL(class TDesC8 const &)
	?GetConnectedWlanDetails@CWsfModel@@QAEXAAV?$TPckgBuf@H@@AAVTWsfWlanInfo@@AAVTRequestStatus@@@Z @ 41 NONAME ; void CWsfModel::GetConnectedWlanDetails(class TPckgBuf<int> &, class TWsfWlanInfo &, class TRequestStatus &)

